target datalayout = "e-m:e-p270:32:32-p271:32:32-p272:64:64-i64:64-i128:128-f80:128-n8:16:32:64-S128"
target triple = "x86_64-pc-linux-gnu"

%struct._zend_phpdbg_globals = type { [11 x %struct._zend_array], %struct._zend_array, %struct._zend_array, ptr, ptr, %struct.phpdbg_frame_t, i32, ptr, %struct.phpdbg_lexer_data, ptr, %struct.sigaction, i32, i64, %struct.phpdbg_btree, %struct.phpdbg_btree, %struct._zend_array, %struct._zend_array, %struct._zend_array, %struct._zend_array, ptr, ptr, ptr, i8, ptr, ptr, ptr, i64, ptr, %struct._zval_struct, i32, i32, i8, i8, ptr, ptr, ptr, %struct._zend_array, ptr, ptr, ptr, [3 x %struct.anon.8], ptr, %struct.anon.9, i64, [2 x ptr], [3 x ptr], ptr, i8, ptr, ptr, [500 x i8], i32, %struct.phpdbg_signal_safe_mem, ptr, i64, ptr, i64 }
%struct.phpdbg_frame_t = type { i32, ptr, ptr }
%struct.phpdbg_lexer_data = type { i32, ptr, ptr, ptr, ptr, i32 }
%struct.sigaction = type { %union.anon.2, %struct.__sigset_t, i32, ptr }
%union.anon.2 = type { ptr }
%struct.__sigset_t = type { [16 x i64] }
%struct.phpdbg_btree = type { i64, i64, i8, ptr }
%struct._zval_struct = type { %union._zend_value, %union.anon.4, %union.anon.7 }
%union._zend_value = type { i64 }
%union.anon.4 = type { i32 }
%union.anon.7 = type { i32 }
%struct._zend_array = type { %struct._zend_refcounted_h, %union.anon.0, i32, %union.anon.1, i32, i32, i32, i32, i64, ptr }
%struct._zend_refcounted_h = type { i32, %union.anon }
%union.anon = type { i32 }
%union.anon.0 = type { i32 }
%union.anon.1 = type { ptr }
%struct.anon.8 = type { i32 }
%struct.anon.9 = type { i8, i32, i32, ptr, i32 }
%struct.phpdbg_signal_safe_mem = type { ptr, i8, ptr, ptr }
%struct._php_core_globals = type { i64, i8, i8, i8, i8, i8, i8, i8, i8, ptr, ptr, i64, i64, i64, ptr, ptr, ptr, ptr, ptr, i8, ptr, ptr, ptr, ptr, i64, ptr, ptr, ptr, ptr, ptr, ptr, ptr, %struct._arg_separators, ptr, %struct._zend_array, i16, i8, i8, %struct._zend_llist, [6 x %struct._zval_struct], i8, i8, i8, i8, i8, ptr, ptr, i64, [8 x i8], i8, i8, i8, i8, i8, i8, i32, i32, ptr, ptr, ptr, ptr, i64, i64, ptr, i64, ptr, ptr, i8, i8, i8, i8, i8, i8, i64, ptr, i64, i64 }
%struct._arg_separators = type { ptr, ptr }
%struct._zend_llist = type { ptr, ptr, i64, i64, ptr, i8, ptr }
%struct.__jmp_buf_tag = type { [8 x i64], i32, %struct.__sigset_t }
%struct._zend_string = type { %struct._zend_refcounted_h, i64, i64, [1 x i8] }

@phpdbg_globals = external global %struct._zend_phpdbg_globals, align 8
@core_globals = external global %struct._php_core_globals, align 8
@.str.23 = private unnamed_addr constant [29 x i8] c"Last error: %s at %s line %d\00", align 1
@.str.24 = private unnamed_addr constant [16 x i8] c"No error found!\00", align 1

; Function Attrs: nounwind uwtable
define hidden i32 @phpdbg_do_info_error(ptr noundef %0) #0 {
  %2 = alloca ptr, align 8
  %3 = alloca ptr, align 8
  %4 = alloca [1 x %struct.__jmp_buf_tag], align 16
  store ptr %0, ptr %2, align 8, !tbaa !4
  %5 = load ptr, ptr getelementptr inbounds nuw (%struct._php_core_globals, ptr @core_globals, i32 0, i32 57), align 8, !tbaa !104
  %6 = icmp ne ptr %5, null
  br i1 %6, label %7, label %28

7:                                                ; preds = %1
  call void @llvm.lifetime.start.p0(i64 8, ptr %3) #8
  %8 = load ptr, ptr getelementptr inbounds nuw (%struct._zend_phpdbg_globals, ptr @phpdbg_globals, i32 0, i32 53), align 8, !tbaa !9
  store ptr %8, ptr %3, align 8, !tbaa !39
  call void @llvm.lifetime.start.p0(i64 200, ptr %4) #8
  store ptr %4, ptr getelementptr inbounds nuw (%struct._zend_phpdbg_globals, ptr @phpdbg_globals, i32 0, i32 53), align 8, !tbaa !9
  %9 = getelementptr inbounds [1 x %struct.__jmp_buf_tag], ptr %4, i64 0, i64 0
  %10 = call i32 @__sigsetjmp(ptr noundef %9, i32 noundef 0) #9
  %11 = icmp eq i32 %10, 0
  br i1 %11, label %12, label %22

12:                                               ; preds = %7
  %13 = load i32, ptr getelementptr inbounds ([3 x %struct.anon.8], ptr getelementptr inbounds nuw (%struct._zend_phpdbg_globals, ptr @phpdbg_globals, i32 0, i32 40), i64 0, i64 1), align 4, !tbaa !40
  %14 = load ptr, ptr getelementptr inbounds nuw (%struct._php_core_globals, ptr @core_globals, i32 0, i32 57), align 8, !tbaa !104
  %15 = getelementptr inbounds nuw %struct._zend_string, ptr %14, i32 0, i32 3
  %16 = getelementptr inbounds [1 x i8], ptr %15, i64 0, i64 0
  %17 = load ptr, ptr getelementptr inbounds nuw (%struct._php_core_globals, ptr @core_globals, i32 0, i32 58), align 8, !tbaa !110
  %18 = getelementptr inbounds nuw %struct._zend_string, ptr %17, i32 0, i32 3
  %19 = getelementptr inbounds [1 x i8], ptr %18, i64 0, i64 0
  %20 = load i32, ptr getelementptr inbounds nuw (%struct._php_core_globals, ptr @core_globals, i32 0, i32 56), align 4, !tbaa !111
  %21 = call i32 (i32, i32, ptr, ...) @phpdbg_print(i32 noundef 3, i32 noundef %13, ptr noundef @.str.23, ptr noundef %16, ptr noundef %19, i32 noundef %20)
  br label %26

22:                                               ; preds = %7
  %23 = load ptr, ptr %3, align 8, !tbaa !39
  store ptr %23, ptr getelementptr inbounds nuw (%struct._zend_phpdbg_globals, ptr @phpdbg_globals, i32 0, i32 53), align 8, !tbaa !9
  %24 = load i32, ptr getelementptr inbounds ([3 x %struct.anon.8], ptr getelementptr inbounds nuw (%struct._zend_phpdbg_globals, ptr @phpdbg_globals, i32 0, i32 40), i64 0, i64 1), align 4, !tbaa !40
  %25 = call i32 (i32, i32, ptr, ...) @phpdbg_print(i32 noundef 2, i32 noundef %24, ptr noundef @.str.24)
  br label %26

26:                                               ; preds = %22, %12
  %27 = load ptr, ptr %3, align 8, !tbaa !39
  store ptr %27, ptr getelementptr inbounds nuw (%struct._zend_phpdbg_globals, ptr @phpdbg_globals, i32 0, i32 53), align 8, !tbaa !9
  call void @llvm.lifetime.end.p0(i64 200, ptr %4) #8
  call void @llvm.lifetime.end.p0(i64 8, ptr %3) #8
  br label %31

28:                                               ; preds = %1
  %29 = load i32, ptr getelementptr inbounds ([3 x %struct.anon.8], ptr getelementptr inbounds nuw (%struct._zend_phpdbg_globals, ptr @phpdbg_globals, i32 0, i32 40), i64 0, i64 1), align 4, !tbaa !40
  %30 = call i32 (i32, i32, ptr, ...) @phpdbg_print(i32 noundef 2, i32 noundef %29, ptr noundef @.str.24)
  br label %31

31:                                               ; preds = %28, %26
  ret i32 0
}