; Function Attrs: nounwind uwtable
define hidden noundef i32 @phpdbg_do_info_error(ptr readnone captures(none) %0) #0 {
  %2 = alloca [1 x %struct.__jmp_buf_tag], align 16
  %3 = load ptr, ptr getelementptr inbounds nuw (i8, ptr @core_globals, i64 496), align 8, !tbaa !98
  %.not = icmp eq ptr %3, null
  br i1 %.not, label %20, label %4

4:                                                ; preds = %1
  %5 = load ptr, ptr getelementptr inbounds nuw (i8, ptr @phpdbg_globals, i64 2176), align 8, !tbaa !4
  call void @llvm.lifetime.start.p0(i64 200, ptr nonnull %2) #6
  store ptr %2, ptr getelementptr inbounds nuw (i8, ptr @phpdbg_globals, i64 2176), align 8, !tbaa !4
  %6 = call i32 @__sigsetjmp(ptr noundef nonnull %2, i32 noundef 0) #7
  %7 = icmp eq i32 %6, 0
  br i1 %7, label %8, label %16

8:                                                ; preds = %4
  %9 = load i32, ptr getelementptr inbounds nuw (i8, ptr @phpdbg_globals, i64 1508), align 4, !tbaa !38
  %10 = load ptr, ptr getelementptr inbounds nuw (i8, ptr @core_globals, i64 496), align 8, !tbaa !98
  %11 = getelementptr inbounds nuw i8, ptr %10, i64 24
  %12 = load ptr, ptr getelementptr inbounds nuw (i8, ptr @core_globals, i64 504), align 8, !tbaa !104
  %13 = getelementptr inbounds nuw i8, ptr %12, i64 24
  %14 = load i32, ptr getelementptr inbounds nuw (i8, ptr @core_globals, i64 492), align 4, !tbaa !105
  %15 = call i32 (i32, i32, ptr, ...) @phpdbg_print(i32 noundef 3, i32 noundef %9, ptr noundef nonnull @.str.23, ptr noundef nonnull %11, ptr noundef nonnull %13, i32 noundef %14) #6
  br label %19

16:                                               ; preds = %4
  store ptr %5, ptr getelementptr inbounds nuw (i8, ptr @phpdbg_globals, i64 2176), align 8, !tbaa !4
  %17 = load i32, ptr getelementptr inbounds nuw (i8, ptr @phpdbg_globals, i64 1508), align 4, !tbaa !38
  %18 = call i32 (i32, i32, ptr, ...) @phpdbg_print(i32 noundef 2, i32 noundef %17, ptr noundef nonnull @.str.24) #6
  br label %19

19:                                               ; preds = %16, %8
  store ptr %5, ptr getelementptr inbounds nuw (i8, ptr @phpdbg_globals, i64 2176), align 8, !tbaa !4
  call void @llvm.lifetime.end.p0(i64 200, ptr nonnull %2) #6
  br label %23

20:                                               ; preds = %1
  %21 = load i32, ptr getelementptr inbounds nuw (i8, ptr @phpdbg_globals, i64 1508), align 4, !tbaa !38
  %22 = call i32 (i32, i32, ptr, ...) @phpdbg_print(i32 noundef 2, i32 noundef %21, ptr noundef nonnull @.str.24) #6
  br label %23

23:                                               ; preds = %20, %19
  ret i32 0
}